target datalayout = "e-m:e-p270:32:32-p271:32:32-p272:64:64-i64:64-i128:128-f80:128-n8:16:32:64-S128"
target triple = "x86_64-pc-linux-gnu"

%"class.icu_77::UnicodeString" = type { %"class.icu_77::Replaceable", %"union.icu_77::UnicodeString::StackBufferOrFields" }
%"class.icu_77::Replaceable" = type { %"class.icu_77::UObject" }
%"class.icu_77::UObject" = type { ptr }
%"union.icu_77::UnicodeString::StackBufferOrFields" = type { %struct.anon.0, [32 x i8] }
%struct.anon.0 = type { i16, i32, i32, ptr }
%"class.icu_77::VTimeZone" = type { %"class.icu_77::BasicTimeZone", ptr, ptr, %"class.icu_77::UnicodeString", double, %"class.icu_77::UnicodeString", %"class.icu_77::UnicodeString" }
%"class.icu_77::BasicTimeZone" = type { %"class.icu_77::TimeZone" }
%"class.icu_77::TimeZone" = type { %"class.icu_77::UObject", %"class.icu_77::UnicodeString" }
%struct.anon = type { i16, [27 x i16] }

@_ZTVN6icu_777UObjectE = available_externally unnamed_addr constant { [5 x ptr] } { [5 x ptr] [ptr null, ptr @_ZTIN6icu_777UObjectE, ptr @_ZN6icu_777UObjectD1Ev, ptr @_ZN6icu_777UObjectD0Ev, ptr @_ZNK6icu_777UObject17getDynamicClassIDEv] }, align 8

; Function Attrs: inlinehint mustprogress nounwind uwtable
define linkonce_odr void @_ZN6icu_777UObjectC2Ev(ptr noundef nonnull align 8 dereferenceable(8) %0) unnamed_addr #3 comdat align 2 {
  %2 = alloca ptr, align 8
  store ptr %0, ptr %2, align 8, !tbaa !153
  %3 = load ptr, ptr %2, align 8
  store ptr getelementptr inbounds inrange(-16, 24) ({ [5 x ptr] }, ptr @_ZTVN6icu_777UObjectE, i32 0, i32 0, i32 2), ptr %3, align 8, !tbaa !31
  ret void
}

; Function Attrs: inlinehint mustprogress nounwind uwtable
define linkonce_odr void @_ZN6icu_7711ReplaceableC2Ev(ptr noundef nonnull align 8 dereferenceable(8) %0) unnamed_addr #3 comdat align 2 {
  %2 = alloca ptr, align 8
  store ptr %0, ptr %2, align 8, !tbaa !151
  %3 = load ptr, ptr %2, align 8
  call void @_ZN6icu_777UObjectC2Ev(ptr noundef nonnull align 8 dereferenceable(8) %3) #11
  store ptr getelementptr inbounds inrange(-16, 88) ({ [13 x ptr] }, ptr @_ZTVN6icu_7711ReplaceableE, i32 0, i32 0, i32 2), ptr %3, align 8, !tbaa !31
  ret void
}

; Function Attrs: inlinehint mustprogress uwtable
define linkonce_odr void @_ZN6icu_7713UnicodeStringC2Ev(ptr noundef nonnull align 8 dereferenceable(64) %0) unnamed_addr #2 comdat align 2 {
  %2 = alloca ptr, align 8
  store ptr %0, ptr %2, align 8, !tbaa !8
  %3 = load ptr, ptr %2, align 8
  call void @_ZN6icu_7711ReplaceableC2Ev(ptr noundef nonnull align 8 dereferenceable(8) %3)
  store ptr getelementptr inbounds inrange(-16, 88) ({ [13 x ptr] }, ptr @_ZTVN6icu_7713UnicodeStringE, i32 0, i32 0, i32 2), ptr %3, align 8, !tbaa !31
  %4 = getelementptr inbounds nuw %"class.icu_77::UnicodeString", ptr %3, i32 0, i32 1
  %5 = getelementptr inbounds nuw %struct.anon, ptr %4, i32 0, i32 0
  store i16 2, ptr %5, align 8, !tbaa !28
  ret void
}

; Function Attrs: mustprogress uwtable
define void @_ZN6icu_779VTimeZoneC2Ev(ptr noundef nonnull align 8 dereferenceable(288) %0) unnamed_addr #1 align 2 personality ptr @__gxx_personality_v0 {
  %2 = alloca ptr, align 8
  %3 = alloca ptr, align 8
  %4 = alloca i32, align 4
  store ptr %0, ptr %2, align 8, !tbaa !29
  %5 = load ptr, ptr %2, align 8
  call void @_ZN6icu_7713BasicTimeZoneC2Ev(ptr noundef nonnull align 8 dereferenceable(72) %5)
  store ptr getelementptr inbounds inrange(-16, 176) ({ [24 x ptr] }, ptr @_ZTVN6icu_779VTimeZoneE, i32 0, i32 0, i32 2), ptr %5, align 8, !tbaa !31
  %6 = getelementptr inbounds nuw %"class.icu_77::VTimeZone", ptr %5, i32 0, i32 1
  store ptr null, ptr %6, align 8, !tbaa !33
  %7 = getelementptr inbounds nuw %"class.icu_77::VTimeZone", ptr %5, i32 0, i32 2
  store ptr null, ptr %7, align 8, !tbaa !43
  %8 = getelementptr inbounds nuw %"class.icu_77::VTimeZone", ptr %5, i32 0, i32 3
  invoke void @_ZN6icu_7713UnicodeStringC2Ev(ptr noundef nonnull align 8 dereferenceable(64) %8)
          to label %9 unwind label %15

9:                                                ; preds = %1
  %10 = getelementptr inbounds nuw %"class.icu_77::VTimeZone", ptr %5, i32 0, i32 4
  store double 0x43846A3EDDF8CD80, ptr %10, align 8, !tbaa !44
  %11 = getelementptr inbounds nuw %"class.icu_77::VTimeZone", ptr %5, i32 0, i32 5
  invoke void @_ZN6icu_7713UnicodeStringC2Ev(ptr noundef nonnull align 8 dereferenceable(64) %11)
          to label %12 unwind label %19

12:                                               ; preds = %9
  %13 = getelementptr inbounds nuw %"class.icu_77::VTimeZone", ptr %5, i32 0, i32 6
  invoke void @_ZN6icu_7713UnicodeStringC2Ev(ptr noundef nonnull align 8 dereferenceable(64) %13)
          to label %14 unwind label %23

14:                                               ; preds = %12
  ret void

15:                                               ; preds = %1
  %16 = landingpad { ptr, i32 }
          cleanup
  %17 = extractvalue { ptr, i32 } %16, 0
  store ptr %17, ptr %3, align 8
  %18 = extractvalue { ptr, i32 } %16, 1
  store i32 %18, ptr %4, align 4
  br label %28

19:                                               ; preds = %9
  %20 = landingpad { ptr, i32 }
          cleanup
  %21 = extractvalue { ptr, i32 } %20, 0
  store ptr %21, ptr %3, align 8
  %22 = extractvalue { ptr, i32 } %20, 1
  store i32 %22, ptr %4, align 4
  br label %27

23:                                               ; preds = %12
  %24 = landingpad { ptr, i32 }
          cleanup
  %25 = extractvalue { ptr, i32 } %24, 0
  store ptr %25, ptr %3, align 8
  %26 = extractvalue { ptr, i32 } %24, 1
  store i32 %26, ptr %4, align 4
  call void @_ZN6icu_7713UnicodeStringD1Ev(ptr noundef nonnull align 8 dereferenceable(64) %11) #11
  br label %27

27:                                               ; preds = %23, %19
  call void @_ZN6icu_7713UnicodeStringD1Ev(ptr noundef nonnull align 8 dereferenceable(64) %8) #11
  br label %28

28:                                               ; preds = %27, %15
  call void @_ZN6icu_7713BasicTimeZoneD2Ev(ptr noundef nonnull align 8 dereferenceable(72) %5) #11
  br label %29

29:                                               ; preds = %28
  %30 = load ptr, ptr %3, align 8
  %31 = load i32, ptr %4, align 4
  %32 = insertvalue { ptr, i32 } poison, ptr %30, 0
  %33 = insertvalue { ptr, i32 } %32, i32 %31, 1
  resume { ptr, i32 } %33
}