; Function Attrs: mustprogress uwtable
define void @_ZN6icu_779VTimeZoneC2Ev(ptr noundef nonnull align 8 dereferenceable(288) %0) unnamed_addr #2 align 2 personality ptr @__gxx_personality_v0 {
  tail call void @_ZN6icu_7713BasicTimeZoneC2Ev(ptr noundef nonnull align 8 dereferenceable(72) %0)
  store ptr getelementptr inbounds nuw inrange(-16, 176) (i8, ptr @_ZTVN6icu_779VTimeZoneE, i64 16), ptr %0, align 8, !tbaa !17
  %2 = getelementptr inbounds nuw i8, ptr %0, i64 72
  %3 = getelementptr inbounds nuw i8, ptr %0, i64 88
  tail call void @llvm.memset.p0.i64(ptr noundef nonnull align 8 dereferenceable(16) %2, i8 0, i64 16, i1 false)
  store ptr getelementptr inbounds nuw inrange(-16, 88) (i8, ptr @_ZTVN6icu_7713UnicodeStringE, i64 16), ptr %3, align 8, !tbaa !17
  %4 = getelementptr inbounds nuw i8, ptr %0, i64 96
  store i16 2, ptr %4, align 8, !tbaa !9
  %5 = getelementptr inbounds nuw i8, ptr %0, i64 152
  store double 0x43846A3EDDF8CD80, ptr %5, align 8, !tbaa !19
  %6 = getelementptr inbounds nuw i8, ptr %0, i64 160
  store ptr getelementptr inbounds nuw inrange(-16, 88) (i8, ptr @_ZTVN6icu_7713UnicodeStringE, i64 16), ptr %6, align 8, !tbaa !17
  %7 = getelementptr inbounds nuw i8, ptr %0, i64 168
  store i16 2, ptr %7, align 8, !tbaa !9
  %8 = getelementptr inbounds nuw i8, ptr %0, i64 224
  store ptr getelementptr inbounds nuw inrange(-16, 88) (i8, ptr @_ZTVN6icu_7713UnicodeStringE, i64 16), ptr %8, align 8, !tbaa !17
  %9 = getelementptr inbounds nuw i8, ptr %0, i64 232
  store i16 2, ptr %9, align 8, !tbaa !9
  ret void
}